target datalayout = "e-m:e-p270:32:32-p271:32:32-p272:64:64-i64:64-i128:128-f80:128-n8:16:32:64-S128"
target triple = "x86_64-pc-linux-gnu"

%"class.icu_77::FieldPositionIterator" = type <{ %"class.icu_77::UObject", ptr, i32, [4 x i8] }>
%"class.icu_77::UObject" = type { ptr }

@_ZTVN6icu_7721FieldPositionIteratorE = unnamed_addr constant { [5 x ptr] } { [5 x ptr] [ptr null, ptr @_ZTIN6icu_7721FieldPositionIteratorE, ptr @_ZN6icu_7721FieldPositionIteratorD1Ev, ptr @_ZN6icu_7721FieldPositionIteratorD0Ev, ptr @_ZNK6icu_777UObject17getDynamicClassIDEv] }, align 8

; Function Attrs: mustprogress nounwind uwtable
define void @_ZN6icu_7721FieldPositionIteratorD2Ev(ptr noundef nonnull align 8 dereferenceable(20) %0) unnamed_addr #0 align 2 {
  %2 = alloca ptr, align 8
  store ptr %0, ptr %2, align 8, !tbaa !3
  %3 = load ptr, ptr %2, align 8
  store ptr getelementptr inbounds inrange(-16, 24) ({ [5 x ptr] }, ptr @_ZTVN6icu_7721FieldPositionIteratorE, i32 0, i32 0, i32 2), ptr %3, align 8, !tbaa !8
  %4 = getelementptr inbounds nuw %"class.icu_77::FieldPositionIterator", ptr %3, i32 0, i32 1
  %5 = load ptr, ptr %4, align 8, !tbaa !10
  %6 = icmp eq ptr %5, null
  br i1 %6, label %11, label %7

7:                                                ; preds = %1
  %8 = load ptr, ptr %5, align 8, !tbaa !8
  %9 = getelementptr inbounds ptr, ptr %8, i64 1
  %10 = load ptr, ptr %9, align 8
  call void %10(ptr noundef nonnull align 8 dereferenceable(32) %5) #6
  br label %11

11:                                               ; preds = %7, %1
  %12 = getelementptr inbounds nuw %"class.icu_77::FieldPositionIterator", ptr %3, i32 0, i32 1
  store ptr null, ptr %12, align 8, !tbaa !10
  %13 = getelementptr inbounds nuw %"class.icu_77::FieldPositionIterator", ptr %3, i32 0, i32 2
  store i32 -1, ptr %13, align 8, !tbaa !15
  call void @_ZN6icu_777UObjectD2Ev(ptr noundef nonnull align 8 dereferenceable(8) %3) #6
  ret void
}